; Function Attrs: mustprogress uwtable
define void @_ZN5Ipopt14DenseGenMatrix12ScaleColumnsERKNS_11DenseVectorE(ptr noundef nonnull align 8 dereferenceable(104) %0, ptr noundef nonnull readonly align 8 captures(none) dereferenceable(248) %1) local_unnamed_addr #2 align 2 {
  %3 = getelementptr inbounds nuw i8, ptr %1, i64 216
  %4 = load ptr, ptr %3, align 8, !tbaa !38
  %5 = getelementptr inbounds nuw i8, ptr %0, i64 56
  %6 = load ptr, ptr %5, align 8, !tbaa !6
  %7 = getelementptr inbounds nuw i8, ptr %6, i64 16
  %8 = load i32, ptr %7, align 8, !tbaa !31
  %9 = icmp sgt i32 %8, 0
  br i1 %9, label %.lr.ph, label %._crit_edge

.lr.ph:                                           ; preds = %2
  %10 = getelementptr inbounds nuw i8, ptr %0, i64 80
  br label %11

._crit_edge:                                      ; preds = %11, %2
  tail call void @_ZN5Ipopt12TaggedObject13ObjectChangedEv(ptr noundef nonnull align 8 dereferenceable(56) %0)
  ret void

11:                                               ; preds = %.lr.ph, %11
  %indvars.iv = phi i64 [ 0, %.lr.ph ], [ %indvars.iv.next, %11 ]
  %12 = phi ptr [ %6, %.lr.ph ], [ %22, %11 ]
  %13 = getelementptr inbounds nuw i8, ptr %12, i64 12
  %14 = load i32, ptr %13, align 4, !tbaa !33
  %15 = getelementptr inbounds nuw double, ptr %4, i64 %indvars.iv
  %16 = load double, ptr %15, align 8, !tbaa !47
  %17 = load ptr, ptr %10, align 8, !tbaa !34
  %18 = trunc nuw nsw i64 %indvars.iv to i32
  %19 = mul nsw i32 %14, %18
  %20 = sext i32 %19 to i64
  %21 = getelementptr inbounds double, ptr %17, i64 %20
  tail call void @_ZN5Ipopt10IpBlasScalEidPdi(i32 noundef %14, double noundef %16, ptr noundef %21, i32 noundef 1)
  %indvars.iv.next = add nuw nsw i64 %indvars.iv, 1
  %22 = load ptr, ptr %5, align 8, !tbaa !6
  %23 = getelementptr inbounds nuw i8, ptr %22, i64 16
  %24 = load i32, ptr %23, align 8, !tbaa !31
  %25 = sext i32 %24 to i64
  %26 = icmp slt i64 %indvars.iv.next, %25
  br i1 %26, label %11, label %._crit_edge, !llvm.loop !48
}